; ModuleID = 'source-C-CXX/28/1191.c'
source_filename = "source-C-CXX/28/1191.c"
target datalayout = "e-m:e-p270:32:32-p271:32:32-p272:64:64-i64:64-f80:128-n8:16:32:64-S128"
target triple = "x86_64-pc-linux-gnu"

@.str = private unnamed_addr constant [3 x i8] c"%d\00", align 1
@.str.1 = private unnamed_addr constant [6 x i8] c"%.3f\0A\00", align 1

; Function Attrs: nofree nounwind sspstrong uwtable
define dso_local i32 @main() local_unnamed_addr #0 {
  %1 = alloca i32, align 4
  %2 = alloca i32, align 4
  %3 = alloca [100 x i32], align 16
  %4 = bitcast i32* %1 to i8*
  call void @llvm.lifetime.start.p0i8(i64 4, i8* nonnull %4) #3
  %5 = bitcast i32* %2 to i8*
  call void @llvm.lifetime.start.p0i8(i64 4, i8* nonnull %5) #3
  %6 = bitcast [100 x i32]* %3 to i8*
  call void @llvm.lifetime.start.p0i8(i64 400, i8* nonnull %6) #3
  %7 = call i32 (i8*, ...) @__isoc99_scanf(i8* getelementptr inbounds ([3 x i8], [3 x i8]* @.str, i64 0, i64 0), i32* nonnull %1)
  %8 = load i32, i32* %1, align 4, !tbaa !5
  %9 = icmp sgt i32 %8, 0
  br i1 %9, label %12, label %66

10:                                               ; preds = %12
  %11 = icmp sgt i32 %18, 0
  br i1 %11, label %21, label %66

12:                                               ; preds = %0, %12
  %13 = phi i64 [ %17, %12 ], [ 0, %0 ]
  %14 = call i32 (i8*, ...) @__isoc99_scanf(i8* getelementptr inbounds ([3 x i8], [3 x i8]* @.str, i64 0, i64 0), i32* nonnull %2)
  %15 = load i32, i32* %2, align 4, !tbaa !5
  %16 = getelementptr inbounds [100 x i32], [100 x i32]* %3, i64 0, i64 %13
  store i32 %15, i32* %16, align 4, !tbaa !5
  %17 = add nuw nsw i64 %13, 1
  %18 = load i32, i32* %1, align 4, !tbaa !5
  %19 = sext i32 %18 to i64
  %20 = icmp slt i64 %17, %19
  br i1 %20, label %12, label %10, !llvm.loop !9

21:                                               ; preds = %10, %58
  %22 = phi i64 [ %62, %58 ], [ 0, %10 ]
  %23 = getelementptr inbounds [100 x i32], [100 x i32]* %3, i64 0, i64 %22
  %24 = load i32, i32* %23, align 4, !tbaa !5
  %25 = icmp sgt i32 %24, 0
  br i1 %25, label %26, label %58

26:                                               ; preds = %21
  %27 = icmp eq i32 %24, 1
  br i1 %27, label %58, label %28

28:                                               ; preds = %26
  %29 = zext i32 %24 to i64
  %30 = add nsw i64 %29, -1
  %31 = and i64 %30, 1
  %32 = icmp eq i32 %24, 2
  br i1 %32, label %48, label %33

33:                                               ; preds = %28
  %34 = and i64 %30, -2
  br label %35

35:                                               ; preds = %35, %33
  %36 = phi float [ 1.000000e+00, %33 ], [ %40, %35 ]
  %37 = phi float [ 2.000000e+00, %33 ], [ %43, %35 ]
  %38 = phi float [ 2.000000e+00, %33 ], [ %45, %35 ]
  %39 = phi i64 [ %34, %33 ], [ %46, %35 ]
  %40 = fadd float %37, %36
  %41 = fdiv float %40, %37
  %42 = fadd float %38, %41
  %43 = fadd float %40, %37
  %44 = fdiv float %43, %40
  %45 = fadd float %42, %44
  %46 = add i64 %39, -2
  %47 = icmp eq i64 %46, 0
  br i1 %47, label %48, label %35, !llvm.loop !11

48:                                               ; preds = %35, %28
  %49 = phi float [ undef, %28 ], [ %45, %35 ]
  %50 = phi float [ 1.000000e+00, %28 ], [ %40, %35 ]
  %51 = phi float [ 2.000000e+00, %28 ], [ %43, %35 ]
  %52 = phi float [ 2.000000e+00, %28 ], [ %45, %35 ]
  %53 = icmp eq i64 %31, 0
  br i1 %53, label %58, label %54

54:                                               ; preds = %48
  %55 = fadd float %51, %50
  %56 = fdiv float %55, %51
  %57 = fadd float %52, %56
  br label %58

58:                                               ; preds = %54, %48, %26, %21
  %59 = phi float [ 0.000000e+00, %21 ], [ 2.000000e+00, %26 ], [ %49, %48 ], [ %57, %54 ]
  %60 = fpext float %59 to double
  %61 = call i32 (i8*, ...) @printf(i8* nonnull dereferenceable(1) getelementptr inbounds ([6 x i8], [6 x i8]* @.str.1, i64 0, i64 0), double %60)
  %62 = add nuw nsw i64 %22, 1
  %63 = load i32, i32* %1, align 4, !tbaa !5
  %64 = sext i32 %63 to i64
  %65 = icmp slt i64 %62, %64
  br i1 %65, label %21, label %66, !llvm.loop !13

66:                                               ; preds = %58, %0, %10
  call void @llvm.lifetime.end.p0i8(i64 400, i8* nonnull %6) #3
  call void @llvm.lifetime.end.p0i8(i64 4, i8* nonnull %5) #3
  call void @llvm.lifetime.end.p0i8(i64 4, i8* nonnull %4) #3
  ret i32 0
}

; Function Attrs: argmemonly mustprogress nofree nosync nounwind willreturn
declare void @llvm.lifetime.start.p0i8(i64 immarg, i8* nocapture) #1

; Function Attrs: nofree nounwind
declare noundef i32 @__isoc99_scanf(i8* nocapture noundef readonly, ...) local_unnamed_addr #2

; Function Attrs: nofree nounwind
declare noundef i32 @printf(i8* nocapture noundef readonly, ...) local_unnamed_addr #2

; Function Attrs: argmemonly mustprogress nofree nosync nounwind willreturn
declare void @llvm.lifetime.end.p0i8(i64 immarg, i8* nocapture) #1


!llvm.module.flags = !{!0, !1, !2, !3}
!llvm.ident = !{!4}

!0 = !{i32 1, !"wchar_size", i32 4}
!1 = !{i32 7, !"PIC Level", i32 2}
!2 = !{i32 7, !"PIE Level", i32 2}
!3 = !{i32 7, !"uwtable", i32 1}
!4 = !{!"clang version 13.0.0"}
!5 = !{!6, !6, i64 0}
!6 = !{!"int", !7, i64 0}
!7 = !{!"omnipotent char", !8, i64 0}
!8 = !{!"Simple C/C++ TBAA"}
!9 = distinct !{!9, !10}
!10 = !{!"llvm.loop.mustprogress"}
!11 = distinct !{!11, !10, !12}
!12 = !{!"llvm.loop.peeled.count", i32 1}
!13 = distinct !{!13, !10}
